; Function Attrs: mustprogress uwtable
define noundef nonnull align 8 dereferenceable(64) ptr @_ZNK6icu_7522TransliterationRuleSet7toRulesERNS_13UnicodeStringEa(ptr nocapture noundef nonnull readonly align 8 dereferenceable(1056) %this, ptr noundef nonnull returned align 8 dereferenceable(64) %ruleSource, i8 noundef signext %escapeUnprintable) unnamed_addr #0 align 2 {
entry:
  %srcChar.addr.i = alloca i16, align 2
  %ruleVector = getelementptr inbounds i8, ptr %this, i64 8
  %0 = load ptr, ptr %ruleVector, align 8
  %count.i = getelementptr inbounds i8, ptr %0, i64 8
  %1 = load i32, ptr %count.i, align 8
  %fUnion.i.i = getelementptr inbounds i8, ptr %ruleSource, i64 8
  %2 = load i16, ptr %fUnion.i.i, align 8
  %conv2.i5.i = and i16 %2, 1
  %tobool.i.not = icmp eq i16 %conv2.i5.i, 0
  br i1 %tobool.i.not, label %if.else.i, label %if.then.i

if.then.i:                                        ; preds = %entry
  tail call void @_ZN6icu_7513UnicodeString7unBogusEv(ptr noundef nonnull align 8 dereferenceable(64) %ruleSource)
  br label %_ZN6icu_7513UnicodeString8truncateEi.exit

if.else.i:                                        ; preds = %entry
  %cmp.i.i.i = icmp slt i16 %2, 0
  %3 = ashr i16 %2, 5
  %shr.i.i.i = sext i16 %3 to i32
  %fLength.i.i = getelementptr inbounds i8, ptr %ruleSource, i64 12
  %4 = load i32, ptr %fLength.i.i, align 4
  %cond.i.i = select i1 %cmp.i.i.i, i32 %4, i32 %shr.i.i.i
  %cmp3.i.not = icmp eq i32 %cond.i.i, 0
  br i1 %cmp3.i.not, label %_ZN6icu_7513UnicodeString8truncateEi.exit, label %if.then4.i

if.then4.i:                                       ; preds = %if.else.i
  %5 = and i16 %2, 30
  store i16 %5, ptr %fUnion.i.i, align 8
  br label %_ZN6icu_7513UnicodeString8truncateEi.exit

_ZN6icu_7513UnicodeString8truncateEi.exit:        ; preds = %if.then.i, %if.else.i, %if.then4.i
  %cmp7 = icmp sgt i32 %1, 0
  br i1 %cmp7, label %for.body, label %for.end

for.body:                                         ; preds = %_ZN6icu_7513UnicodeString8truncateEi.exit, %if.end
  %i.08 = phi i32 [ %inc, %if.end ], [ 0, %_ZN6icu_7513UnicodeString8truncateEi.exit ]
  %cmp3.not = icmp eq i32 %i.08, 0
  br i1 %cmp3.not, label %if.end, label %if.then

if.then:                                          ; preds = %for.body
  call void @llvm.lifetime.start.p0(i64 2, ptr nonnull %srcChar.addr.i)
  store i16 10, ptr %srcChar.addr.i, align 2
  %call.i = call noundef nonnull align 8 dereferenceable(64) ptr @_ZN6icu_7513UnicodeString8doAppendEPKDsii(ptr noundef nonnull align 8 dereferenceable(64) %ruleSource, ptr noundef nonnull %srcChar.addr.i, i32 noundef 0, i32 noundef 1)
  call void @llvm.lifetime.end.p0(i64 2, ptr nonnull %srcChar.addr.i)
  br label %if.end

if.end:                                           ; preds = %if.then, %for.body
  %6 = load ptr, ptr %ruleVector, align 8
  %call6 = call noundef ptr @_ZNK6icu_757UVector9elementAtEi(ptr noundef nonnull align 8 dereferenceable(40) %6, i32 noundef %i.08)
  %vtable = load ptr, ptr %call6, align 8
  %vfn = getelementptr inbounds i8, ptr %vtable, i64 32
  %7 = load ptr, ptr %vfn, align 8
  %call7 = call noundef nonnull align 8 dereferenceable(64) ptr %7(ptr noundef nonnull align 8 dereferenceable(136) %call6, ptr noundef nonnull align 8 dereferenceable(64) %ruleSource, i8 noundef signext %escapeUnprintable)
  %inc = add nuw nsw i32 %i.08, 1
  %exitcond.not = icmp eq i32 %inc, %1
  br i1 %exitcond.not, label %for.end, label %for.body, !llvm.loop !16

for.end:                                          ; preds = %if.end, %_ZN6icu_7513UnicodeString8truncateEi.exit
  ret ptr %ruleSource
}